; Function Attrs: nounwind uwtable
define internal void @rvdes(ptr noundef %0) #1 {
  %2 = getelementptr inbounds nuw i8, ptr %0, i64 144
  %3 = load ptr, ptr %2, align 8, !tbaa !43
  %.not = icmp eq ptr %3, null
  br i1 %.not, label %5, label %4

4:                                                ; preds = %1
  tail call void @free(ptr noundef nonnull %3) #9
  br label %5

5:                                                ; preds = %4, %1
  %6 = getelementptr inbounds nuw i8, ptr %0, i64 152
  %7 = load ptr, ptr %6, align 8, !tbaa !44
  %.not15 = icmp eq ptr %7, null
  br i1 %.not15, label %9, label %8

8:                                                ; preds = %5
  tail call void @free(ptr noundef nonnull %7) #9
  br label %9

9:                                                ; preds = %5, %8
  %10 = getelementptr inbounds nuw i8, ptr %0, i64 432
  %11 = load volatile i64, ptr %10, align 8, !tbaa !30
  %12 = icmp eq i64 %11, 0
  br i1 %12, label %._crit_edge, label %.lr.ph

.lr.ph:                                           ; preds = %9
  %13 = getelementptr inbounds nuw i8, ptr %0, i64 408
  br label %14

14:                                               ; preds = %.lr.ph, %47
  %15 = load volatile i64, ptr %10, align 8, !tbaa !30
  %16 = add i64 %15, -1
  store volatile i64 %16, ptr %10, align 8, !tbaa !30
  %17 = load ptr, ptr %13, align 8, !tbaa !31
  %18 = getelementptr inbounds nuw i8, ptr %17, i64 128
  %19 = load volatile ptr, ptr %18, align 8, !tbaa !32
  %20 = getelementptr inbounds nuw i8, ptr %17, i64 120
  %21 = load volatile ptr, ptr %20, align 8, !tbaa !33
  %22 = getelementptr inbounds nuw i8, ptr %21, i64 128
  store volatile ptr %19, ptr %22, align 8, !tbaa !32
  %23 = load volatile ptr, ptr %20, align 8, !tbaa !33
  store ptr %23, ptr %13, align 8, !tbaa !31
  %24 = tail call i32 @pthread_mutex_lock(ptr noundef nonnull %17) #9
  %25 = icmp eq i32 %24, 35
  br i1 %25, label %26, label %pmix_obj_update.exit

26:                                               ; preds = %14
  %27 = tail call ptr @__errno_location() #10
  store i32 35, ptr %27, align 4, !tbaa !17
  tail call void @perror(ptr noundef nonnull @.str.6) #11
  tail call void @abort() #12
  unreachable

pmix_obj_update.exit:                             ; preds = %14
  %28 = getelementptr inbounds nuw i8, ptr %17, i64 48
  %29 = load i32, ptr %28, align 8, !tbaa !22
  %30 = add nsw i32 %29, -1
  store i32 %30, ptr %28, align 8, !tbaa !22
  %31 = tail call i32 @pthread_mutex_unlock(ptr noundef nonnull %17) #9
  %32 = icmp eq i32 %30, 0
  br i1 %32, label %33, label %47

33:                                               ; preds = %pmix_obj_update.exit
  %34 = getelementptr inbounds nuw i8, ptr %17, i64 40
  %35 = load ptr, ptr %34, align 8, !tbaa !21
  %36 = getelementptr inbounds nuw i8, ptr %35, i64 48
  %37 = load ptr, ptr %36, align 8, !tbaa !34
  %38 = load ptr, ptr %37, align 8, !tbaa !24
  %.not6.i = icmp eq ptr %38, null
  br i1 %.not6.i, label %pmix_obj_run_destructors.exit, label %.lr.ph.i

.lr.ph.i:                                         ; preds = %33, %.lr.ph.i
  %39 = phi ptr [ %41, %.lr.ph.i ], [ %38, %33 ]
  %.07.i = phi ptr [ %40, %.lr.ph.i ], [ %37, %33 ]
  tail call void %39(ptr noundef nonnull %17) #9
  %40 = getelementptr inbounds nuw i8, ptr %.07.i, i64 8
  %41 = load ptr, ptr %40, align 8, !tbaa !24
  %.not.i = icmp eq ptr %41, null
  br i1 %.not.i, label %pmix_obj_run_destructors.exit, label %.lr.ph.i, !llvm.loop !35

pmix_obj_run_destructors.exit:                    ; preds = %.lr.ph.i, %33
  %42 = getelementptr inbounds nuw i8, ptr %17, i64 96
  %43 = load ptr, ptr %42, align 8, !tbaa !36
  %.not17 = icmp eq ptr %43, null
  br i1 %.not17, label %46, label %44

44:                                               ; preds = %pmix_obj_run_destructors.exit
  %45 = getelementptr inbounds nuw i8, ptr %17, i64 56
  tail call void %43(ptr noundef nonnull %45, ptr noundef nonnull %17) #9
  br label %47

46:                                               ; preds = %pmix_obj_run_destructors.exit
  tail call void @free(ptr noundef nonnull %17) #9
  br label %47

47:                                               ; preds = %44, %46, %pmix_obj_update.exit
  %48 = load volatile i64, ptr %10, align 8, !tbaa !30
  %49 = icmp eq i64 %48, 0
  br i1 %49, label %._crit_edge, label %14, !llvm.loop !45

._crit_edge:                                      ; preds = %47, %9
  %50 = getelementptr inbounds nuw i8, ptr %0, i64 168
  %51 = getelementptr inbounds nuw i8, ptr %0, i64 208
  %52 = load ptr, ptr %51, align 8, !tbaa !21
  %53 = getelementptr inbounds nuw i8, ptr %52, i64 48
  %54 = load ptr, ptr %53, align 8, !tbaa !34
  %55 = load ptr, ptr %54, align 8, !tbaa !24
  %.not6.i18 = icmp eq ptr %55, null
  br i1 %.not6.i18, label %pmix_obj_run_destructors.exit22, label %.lr.ph.i19

.lr.ph.i19:                                       ; preds = %._crit_edge, %.lr.ph.i19
  %56 = phi ptr [ %58, %.lr.ph.i19 ], [ %55, %._crit_edge ]
  %.07.i20 = phi ptr [ %57, %.lr.ph.i19 ], [ %54, %._crit_edge ]
  tail call void %56(ptr noundef nonnull %50) #9
  %57 = getelementptr inbounds nuw i8, ptr %.07.i20, i64 8
  %58 = load ptr, ptr %57, align 8, !tbaa !24
  %.not.i21 = icmp eq ptr %58, null
  br i1 %.not.i21, label %pmix_obj_run_destructors.exit22, label %.lr.ph.i19, !llvm.loop !35

pmix_obj_run_destructors.exit22:                  ; preds = %.lr.ph.i19, %._crit_edge
  ret void
}